; ModuleID = '46/2771.c'
source_filename = "46/2771.c"
target datalayout = "e-m:e-p270:32:32-p271:32:32-p272:64:64-i64:64-f80:128-n8:16:32:64-S128"
target triple = "x86_64-pc-linux-gnu"

@.str = private unnamed_addr constant [5 x i8] c"%d%d\00", align 1
@.str.1 = private unnamed_addr constant [3 x i8] c"%d\00", align 1
@.str.2 = private unnamed_addr constant [4 x i8] c"%d\0A\00", align 1

; Function Attrs: noinline nounwind uwtable
define dso_local i32 @main() #0 {
  %1 = alloca i32, align 4
  %2 = alloca i32, align 4
  %3 = alloca i32, align 4
  %4 = alloca i32, align 4
  %5 = alloca i32, align 4
  %6 = alloca [100 x [100 x i32]], align 16
  %7 = alloca i32, align 4
  %8 = alloca i32, align 4
  store i32 0, i32* %1, align 4
  store i32 0, i32* %7, align 4
  %9 = call i32 (i8*, ...) @__isoc99_scanf(i8* getelementptr inbounds ([5 x i8], [5 x i8]* @.str, i64 0, i64 0), i32* %4, i32* %5)
  %10 = load i32, i32* %4, align 4
  %11 = load i32, i32* %5, align 4
  %12 = mul nsw i32 %10, %11
  store i32 %12, i32* %8, align 4
  store i32 0, i32* %2, align 4
  br label %13

13:                                               ; preds = %34, %0
  %14 = load i32, i32* %2, align 4
  %15 = load i32, i32* %4, align 4
  %16 = icmp slt i32 %14, %15
  br i1 %16, label %17, label %37

17:                                               ; preds = %13
  store i32 0, i32* %3, align 4
  br label %18

18:                                               ; preds = %30, %17
  %19 = load i32, i32* %3, align 4
  %20 = load i32, i32* %5, align 4
  %21 = icmp slt i32 %19, %20
  br i1 %21, label %22, label %33

22:                                               ; preds = %18
  %23 = load i32, i32* %2, align 4
  %24 = sext i32 %23 to i64
  %25 = getelementptr inbounds [100 x [100 x i32]], [100 x [100 x i32]]* %6, i64 0, i64 %24
  %26 = load i32, i32* %3, align 4
  %27 = sext i32 %26 to i64
  %28 = getelementptr inbounds [100 x i32], [100 x i32]* %25, i64 0, i64 %27
  %29 = call i32 (i8*, ...) @__isoc99_scanf(i8* getelementptr inbounds ([3 x i8], [3 x i8]* @.str.1, i64 0, i64 0), i32* %28)
  br label %30

30:                                               ; preds = %22
  %31 = load i32, i32* %3, align 4
  %32 = add nsw i32 %31, 1
  store i32 %32, i32* %3, align 4
  br label %18

33:                                               ; preds = %18
  br label %34

34:                                               ; preds = %33
  %35 = load i32, i32* %2, align 4
  %36 = add nsw i32 %35, 1
  store i32 %36, i32* %2, align 4
  br label %13

37:                                               ; preds = %13
  %38 = load i32, i32* %7, align 4
  store i32 %38, i32* %2, align 4
  br label %39

39:                                               ; preds = %148, %37
  %40 = load i32, i32* %8, align 4
  %41 = icmp ne i32 %40, 0
  br i1 %41, label %42, label %157

42:                                               ; preds = %39
  %43 = load i32, i32* %7, align 4
  store i32 %43, i32* %3, align 4
  br label %44

44:                                               ; preds = %63, %42
  %45 = load i32, i32* %3, align 4
  %46 = load i32, i32* %5, align 4
  %47 = icmp slt i32 %45, %46
  br i1 %47, label %48, label %66

48:                                               ; preds = %44
  %49 = load i32, i32* %8, align 4
  %50 = icmp eq i32 %49, 0
  br i1 %50, label %51, label %52

51:                                               ; preds = %48
  br label %66

52:                                               ; preds = %48
  %53 = load i32, i32* %2, align 4
  %54 = sext i32 %53 to i64
  %55 = getelementptr inbounds [100 x [100 x i32]], [100 x [100 x i32]]* %6, i64 0, i64 %54
  %56 = load i32, i32* %3, align 4
  %57 = sext i32 %56 to i64
  %58 = getelementptr inbounds [100 x i32], [100 x i32]* %55, i64 0, i64 %57
  %59 = load i32, i32* %58, align 4
  %60 = call i32 (i8*, ...) @printf(i8* getelementptr inbounds ([4 x i8], [4 x i8]* @.str.2, i64 0, i64 0), i32 %59)
  %61 = load i32, i32* %8, align 4
  %62 = add nsw i32 %61, -1
  store i32 %62, i32* %8, align 4
  br label %63

63:                                               ; preds = %52
  %64 = load i32, i32* %3, align 4
  %65 = add nsw i32 %64, 1
  store i32 %65, i32* %3, align 4
  br label %44

66:                                               ; preds = %51, %44
  %67 = load i32, i32* %3, align 4
  %68 = add nsw i32 %67, -1
  store i32 %68, i32* %3, align 4
  %69 = load i32, i32* %2, align 4
  %70 = add nsw i32 %69, 1
  store i32 %70, i32* %2, align 4
  br label %71

71:                                               ; preds = %90, %66
  %72 = load i32, i32* %2, align 4
  %73 = load i32, i32* %4, align 4
  %74 = icmp slt i32 %72, %73
  br i1 %74, label %75, label %93

75:                                               ; preds = %71
  %76 = load i32, i32* %8, align 4
  %77 = icmp eq i32 %76, 0
  br i1 %77, label %78, label %79

78:                                               ; preds = %75
  br label %93

79:                                               ; preds = %75
  %80 = load i32, i32* %2, align 4
  %81 = sext i32 %80 to i64
  %82 = getelementptr inbounds [100 x [100 x i32]], [100 x [100 x i32]]* %6, i64 0, i64 %81
  %83 = load i32, i32* %3, align 4
  %84 = sext i32 %83 to i64
  %85 = getelementptr inbounds [100 x i32], [100 x i32]* %82, i64 0, i64 %84
  %86 = load i32, i32* %85, align 4
  %87 = call i32 (i8*, ...) @printf(i8* getelementptr inbounds ([4 x i8], [4 x i8]* @.str.2, i64 0, i64 0), i32 %86)
  %88 = load i32, i32* %8, align 4
  %89 = add nsw i32 %88, -1
  store i32 %89, i32* %8, align 4
  br label %90

90:                                               ; preds = %79
  %91 = load i32, i32* %2, align 4
  %92 = add nsw i32 %91, 1
  store i32 %92, i32* %2, align 4
  br label %71

93:                                               ; preds = %78, %71
  %94 = load i32, i32* %2, align 4
  %95 = add nsw i32 %94, -1
  store i32 %95, i32* %2, align 4
  %96 = load i32, i32* %5, align 4
  %97 = sub nsw i32 %96, 2
  store i32 %97, i32* %3, align 4
  br label %98

98:                                               ; preds = %117, %93
  %99 = load i32, i32* %3, align 4
  %100 = load i32, i32* %7, align 4
  %101 = icmp sge i32 %99, %100
  br i1 %101, label %102, label %120

102:                                              ; preds = %98
  %103 = load i32, i32* %8, align 4
  %104 = icmp eq i32 %103, 0
  br i1 %104, label %105, label %106

105:                                              ; preds = %102
  br label %120

106:                                              ; preds = %102
  %107 = load i32, i32* %2, align 4
  %108 = sext i32 %107 to i64
  %109 = getelementptr inbounds [100 x [100 x i32]], [100 x [100 x i32]]* %6, i64 0, i64 %108
  %110 = load i32, i32* %3, align 4
  %111 = sext i32 %110 to i64
  %112 = getelementptr inbounds [100 x i32], [100 x i32]* %109, i64 0, i64 %111
  %113 = load i32, i32* %112, align 4
  %114 = call i32 (i8*, ...) @printf(i8* getelementptr inbounds ([4 x i8], [4 x i8]* @.str.2, i64 0, i64 0), i32 %113)
  %115 = load i32, i32* %8, align 4
  %116 = add nsw i32 %115, -1
  store i32 %116, i32* %8, align 4
  br label %117

117:                                              ; preds = %106
  %118 = load i32, i32* %3, align 4
  %119 = add nsw i32 %118, -1
  store i32 %119, i32* %3, align 4
  br label %98

120:                                              ; preds = %105, %98
  %121 = load i32, i32* %3, align 4
  %122 = add nsw i32 %121, 1
  store i32 %122, i32* %3, align 4
  %123 = load i32, i32* %4, align 4
  %124 = sub nsw i32 %123, 2
  store i32 %124, i32* %2, align 4
  br label %125

125:                                              ; preds = %145, %120
  %126 = load i32, i32* %2, align 4
  %127 = load i32, i32* %7, align 4
  %128 = add nsw i32 %127, 1
  %129 = icmp sge i32 %126, %128
  br i1 %129, label %130, label %148

130:                                              ; preds = %125
  %131 = load i32, i32* %8, align 4
  %132 = icmp eq i32 %131, 0
  br i1 %132, label %133, label %134

133:                                              ; preds = %130
  br label %148

134:                                              ; preds = %130
  %135 = load i32, i32* %2, align 4
  %136 = sext i32 %135 to i64
  %137 = getelementptr inbounds [100 x [100 x i32]], [100 x [100 x i32]]* %6, i64 0, i64 %136
  %138 = load i32, i32* %3, align 4
  %139 = sext i32 %138 to i64
  %140 = getelementptr inbounds [100 x i32], [100 x i32]* %137, i64 0, i64 %139
  %141 = load i32, i32* %140, align 4
  %142 = call i32 (i8*, ...) @printf(i8* getelementptr inbounds ([4 x i8], [4 x i8]* @.str.2, i64 0, i64 0), i32 %141)
  %143 = load i32, i32* %8, align 4
  %144 = add nsw i32 %143, -1
  store i32 %144, i32* %8, align 4
  br label %145

145:                                              ; preds = %134
  %146 = load i32, i32* %2, align 4
  %147 = add nsw i32 %146, -1
  store i32 %147, i32* %2, align 4
  br label %125

148:                                              ; preds = %133, %125
  %149 = load i32, i32* %2, align 4
  %150 = add nsw i32 %149, 1
  store i32 %150, i32* %2, align 4
  %151 = load i32, i32* %7, align 4
  %152 = add nsw i32 %151, 1
  store i32 %152, i32* %7, align 4
  %153 = load i32, i32* %4, align 4
  %154 = add nsw i32 %153, -1
  store i32 %154, i32* %4, align 4
  %155 = load i32, i32* %5, align 4
  %156 = add nsw i32 %155, -1
  store i32 %156, i32* %5, align 4
  br label %39

157:                                              ; preds = %39
  %158 = call i32 @getchar()
  %159 = call i32 @getchar()
  %160 = load i32, i32* %1, align 4
  ret i32 %160
}

declare dso_local i32 @__isoc99_scanf(i8*, ...) #1

declare dso_local i32 @printf(i8*, ...) #1

declare dso_local i32 @getchar() #1


!llvm.module.flags = !{!0}
!llvm.ident = !{!1}

!0 = !{i32 1, !"wchar_size", i32 4}
!1 = !{!"clang version 10.0.0-4ubuntu1 "}
